target datalayout = "e-m:e-p270:32:32-p271:32:32-p272:64:64-i64:64-i128:128-f80:128-n8:16:32:64-S128"
target triple = "x86_64-pc-linux-gnu"

@.str.7 = private unnamed_addr constant [3 x i8] c",\0A\00", align 1
@.str.36 = private unnamed_addr constant [3 x i8] c"%u\00", align 1
@.str.37 = private unnamed_addr constant [5 x i8] c"'%c'\00", align 1

; Function Attrs: mustprogress uwtable
define void @usrc_writeArrayOfMostlyInvChars(ptr noundef %0, ptr noundef %1, ptr noundef %2, i32 noundef %3, ptr noundef %4) #1 {
  %6 = alloca ptr, align 8
  %7 = alloca ptr, align 8
  %8 = alloca ptr, align 8
  %9 = alloca i32, align 4
  %10 = alloca ptr, align 8
  %11 = alloca i32, align 4
  %12 = alloca i32, align 4
  %13 = alloca i32, align 4
  %14 = alloca i32, align 4
  %15 = alloca i32, align 4
  store ptr %0, ptr %6, align 8, !tbaa !25
  store ptr %1, ptr %7, align 8, !tbaa !17
  store ptr %2, ptr %8, align 8, !tbaa !17
  store i32 %3, ptr %9, align 4, !tbaa !14
  store ptr %4, ptr %10, align 8, !tbaa !17
  call void @llvm.lifetime.start.p0(i64 4, ptr %11) #16
  call void @llvm.lifetime.start.p0(i64 4, ptr %12) #16
  call void @llvm.lifetime.start.p0(i64 4, ptr %13) #16
  call void @llvm.lifetime.start.p0(i64 4, ptr %14) #16
  call void @llvm.lifetime.start.p0(i64 4, ptr %15) #16
  %16 = load ptr, ptr %7, align 8, !tbaa !17
  %17 = icmp ne ptr %16, null
  br i1 %17, label %18, label %24

18:                                               ; preds = %5
  %19 = load ptr, ptr %6, align 8, !tbaa !25
  %20 = load ptr, ptr %7, align 8, !tbaa !17
  %21 = load i32, ptr %9, align 4, !tbaa !14
  %22 = sext i32 %21 to i64
  %23 = call i32 (ptr, ptr, ...) @fprintf(ptr noundef %19, ptr noundef %20, i64 noundef %22) #16
  br label %24

24:                                               ; preds = %18, %5
  store i32 -1, ptr %14, align 4, !tbaa !14
  store i32 -1, ptr %13, align 4, !tbaa !14
  store i32 0, ptr %12, align 4, !tbaa !14
  store i32 0, ptr %11, align 4, !tbaa !14
  br label %25

25:                                               ; preds = %81, %24
  %26 = load i32, ptr %11, align 4, !tbaa !14
  %27 = load i32, ptr %9, align 4, !tbaa !14
  %28 = icmp slt i32 %26, %27
  br i1 %28, label %29, label %86

29:                                               ; preds = %25
  %30 = load ptr, ptr %8, align 8, !tbaa !17
  %31 = load i32, ptr %11, align 4, !tbaa !14
  %32 = sext i32 %31 to i64
  %33 = getelementptr inbounds i8, ptr %30, i64 %32
  %34 = load i8, ptr %33, align 1, !tbaa !27
  %35 = zext i8 %34 to i32
  store i32 %35, ptr %15, align 4, !tbaa !14
  %36 = load i32, ptr %11, align 4, !tbaa !14
  %37 = icmp sgt i32 %36, 0
  br i1 %37, label %38, label %72

38:                                               ; preds = %29
  %39 = load i32, ptr %12, align 4, !tbaa !14
  %40 = icmp sge i32 %39, 32
  br i1 %40, label %65, label %41

41:                                               ; preds = %38
  %42 = load i32, ptr %12, align 4, !tbaa !14
  %43 = icmp sge i32 %42, 24
  br i1 %43, label %44, label %50

44:                                               ; preds = %41
  %45 = load i32, ptr %13, align 4, !tbaa !14
  %46 = icmp sge i32 %45, 32
  br i1 %46, label %47, label %50

47:                                               ; preds = %44
  %48 = load i32, ptr %14, align 4, !tbaa !14
  %49 = icmp eq i32 %48, 0
  br i1 %49, label %65, label %50

50:                                               ; preds = %47, %44, %41
  %51 = load i32, ptr %12, align 4, !tbaa !14
  %52 = icmp sge i32 %51, 16
  br i1 %52, label %53, label %68

53:                                               ; preds = %50
  %54 = load i32, ptr %14, align 4, !tbaa !14
  %55 = icmp eq i32 %54, 0
  br i1 %55, label %59, label %56

56:                                               ; preds = %53
  %57 = load i32, ptr %14, align 4, !tbaa !14
  %58 = icmp sge i32 %57, 32
  br i1 %58, label %59, label %68

59:                                               ; preds = %56, %53
  %60 = load i32, ptr %15, align 4, !tbaa !14
  %61 = icmp slt i32 0, %60
  br i1 %61, label %62, label %68

62:                                               ; preds = %59
  %63 = load i32, ptr %15, align 4, !tbaa !14
  %64 = icmp slt i32 %63, 32
  br i1 %64, label %65, label %68

65:                                               ; preds = %62, %47, %38
  %66 = load ptr, ptr %6, align 8, !tbaa !25
  %67 = call i32 @fputs(ptr noundef @.str.7, ptr noundef %66)
  store i32 0, ptr %12, align 4, !tbaa !14
  br label %71

68:                                               ; preds = %62, %59, %56, %50
  %69 = load ptr, ptr %6, align 8, !tbaa !25
  %70 = call i32 @fputc(i32 noundef 44, ptr noundef %69)
  br label %71

71:                                               ; preds = %68, %65
  br label %72

72:                                               ; preds = %71, %29
  %73 = load ptr, ptr %6, align 8, !tbaa !25
  %74 = load i32, ptr %15, align 4, !tbaa !14
  %75 = icmp slt i32 %74, 32
  %76 = select i1 %75, ptr @.str.36, ptr @.str.37
  %77 = load i32, ptr %15, align 4, !tbaa !14
  %78 = call i32 (ptr, ptr, ...) @fprintf(ptr noundef %73, ptr noundef %76, i32 noundef %77) #16
  %79 = load i32, ptr %14, align 4, !tbaa !14
  store i32 %79, ptr %13, align 4, !tbaa !14
  %80 = load i32, ptr %15, align 4, !tbaa !14
  store i32 %80, ptr %14, align 4, !tbaa !14
  br label %81

81:                                               ; preds = %72
  %82 = load i32, ptr %11, align 4, !tbaa !14
  %83 = add nsw i32 %82, 1
  store i32 %83, ptr %11, align 4, !tbaa !14
  %84 = load i32, ptr %12, align 4, !tbaa !14
  %85 = add nsw i32 %84, 1
  store i32 %85, ptr %12, align 4, !tbaa !14
  br label %25, !llvm.loop !94

86:                                               ; preds = %25
  %87 = load ptr, ptr %10, align 8, !tbaa !17
  %88 = icmp ne ptr %87, null
  br i1 %88, label %89, label %93

89:                                               ; preds = %86
  %90 = load ptr, ptr %10, align 8, !tbaa !17
  %91 = load ptr, ptr %6, align 8, !tbaa !25
  %92 = call i32 @fputs(ptr noundef %90, ptr noundef %91)
  br label %93

93:                                               ; preds = %89, %86
  call void @llvm.lifetime.end.p0(i64 4, ptr %15) #16
  call void @llvm.lifetime.end.p0(i64 4, ptr %14) #16
  call void @llvm.lifetime.end.p0(i64 4, ptr %13) #16
  call void @llvm.lifetime.end.p0(i64 4, ptr %12) #16
  call void @llvm.lifetime.end.p0(i64 4, ptr %11) #16
  ret void
}