; Function Attrs: mustprogress nofree nounwind uwtable
define void @usrc_writeArrayOfMostlyInvChars(ptr noundef captures(none) %0, ptr noundef readonly %1, ptr noundef readonly captures(none) %2, i32 noundef %3, ptr noundef readonly %4) local_unnamed_addr #13 {
  %.not = icmp eq ptr %1, null
  br i1 %.not, label %9, label %6

6:                                                ; preds = %5
  %7 = sext i32 %3 to i64
  %8 = tail call i32 (ptr, ptr, ...) @fprintf(ptr noundef %0, ptr noundef nonnull %1, i64 noundef %7) #24
  br label %9

9:                                                ; preds = %6, %5
  %10 = icmp sgt i32 %3, 0
  br i1 %10, label %.lr.ph.preheader, label %._crit_edge

.lr.ph.preheader:                                 ; preds = %9
  %wide.trip.count = zext nneg i32 %3 to i64
  br label %.lr.ph

.lr.ph:                                           ; preds = %.lr.ph.preheader, %30
  %indvars.iv = phi i64 [ 0, %.lr.ph.preheader ], [ %indvars.iv.next, %30 ]
  %.03847 = phi i32 [ -1, %.lr.ph.preheader ], [ %13, %30 ]
  %.03946 = phi i32 [ -1, %.lr.ph.preheader ], [ %.03847, %30 ]
  %.04045 = phi i32 [ 0, %.lr.ph.preheader ], [ %34, %30 ]
  %11 = getelementptr inbounds nuw i8, ptr %2, i64 %indvars.iv
  %12 = load i8, ptr %11, align 1, !tbaa !15
  %13 = zext i8 %12 to i32
  %.not44 = icmp eq i64 %indvars.iv, 0
  br i1 %.not44, label %30, label %14

14:                                               ; preds = %.lr.ph
  %15 = icmp sgt i32 %.04045, 31
  br i1 %15, label %26, label %16

16:                                               ; preds = %14
  %17 = icmp sgt i32 %.04045, 23
  %18 = icmp sgt i32 %.03946, 31
  %or.cond = select i1 %17, i1 %18, i1 false
  %19 = icmp eq i32 %.03847, 0
  %or.cond3 = select i1 %or.cond, i1 %19, i1 false
  br i1 %or.cond3, label %26, label %20

20:                                               ; preds = %16
  %21 = icmp sgt i32 %.04045, 15
  br i1 %21, label %22, label %28

22:                                               ; preds = %20
  %23 = icmp sgt i32 %.03847, 31
  %or.cond5 = or i1 %19, %23
  %24 = add i8 %12, -1
  %25 = icmp ult i8 %24, 31
  %or.cond9 = select i1 %or.cond5, i1 %25, i1 false
  br i1 %or.cond9, label %26, label %28

26:                                               ; preds = %22, %16, %14
  %27 = tail call i64 @fwrite(ptr nonnull @.str.7, i64 2, i64 1, ptr %0)
  br label %30

28:                                               ; preds = %22, %20
  %29 = tail call i32 @fputc(i32 noundef 44, ptr noundef %0)
  br label %30

30:                                               ; preds = %26, %28, %.lr.ph
  %.1 = phi i32 [ 0, %26 ], [ %.04045, %28 ], [ %.04045, %.lr.ph ]
  %31 = icmp ult i8 %12, 32
  %32 = select i1 %31, ptr @.str.36, ptr @.str.37
  %33 = tail call i32 (ptr, ptr, ...) @fprintf(ptr noundef %0, ptr noundef nonnull %32, i32 noundef %13) #24
  %indvars.iv.next = add nuw nsw i64 %indvars.iv, 1
  %34 = add nsw i32 %.1, 1
  %exitcond.not = icmp eq i64 %indvars.iv.next, %wide.trip.count
  br i1 %exitcond.not, label %._crit_edge, label %.lr.ph, !llvm.loop !67

._crit_edge:                                      ; preds = %30, %9
  %.not43 = icmp eq ptr %4, null
  br i1 %.not43, label %37, label %35

35:                                               ; preds = %._crit_edge
  %36 = tail call i32 @fputs(ptr noundef nonnull %4, ptr noundef %0)
  br label %37

37:                                               ; preds = %35, %._crit_edge
  ret void
}